target datalayout = "e-m:e-p270:32:32-p271:32:32-p272:64:64-i64:64-f80:128-n8:16:32:64-S128"
target triple = "x86_64-pc-linux-gnu"

@.str = private unnamed_addr constant [6 x i8] c"%d,%d\00", align 1
@.str.1 = private unnamed_addr constant [3 x i8] c"%d\00", align 1
@.str.2 = private unnamed_addr constant [6 x i8] c"%d+%d\00", align 1
@.str.3 = private unnamed_addr constant [3 x i8] c"No\00", align 1

; Function Attrs: noinline nounwind uwtable
define dso_local i32 @main() #0 {
  %1 = alloca i32, align 4
  %2 = alloca i32, align 4
  %3 = alloca i32, align 4
  %4 = alloca [8 x [8 x i32]], align 16
  %5 = alloca [8 x i32], align 16
  %6 = alloca [8 x i32], align 16
  %7 = alloca i32, align 4
  %8 = alloca i32, align 4
  store i32 0, i32* %1, align 4
  %9 = call i32 (i8*, ...) @__isoc99_scanf(i8* getelementptr inbounds ([6 x i8], [6 x i8]* @.str, i64 0, i64 0), i32* %2, i32* %3)
  store i32 0, i32* %7, align 4
  br label %10

10:                                               ; preds = %31, %0
  %11 = load i32, i32* %7, align 4
  %12 = load i32, i32* %2, align 4
  %13 = icmp slt i32 %11, %12
  br i1 %13, label %14, label %34

14:                                               ; preds = %10
  store i32 0, i32* %8, align 4
  br label %15

15:                                               ; preds = %27, %14
  %16 = load i32, i32* %8, align 4
  %17 = load i32, i32* %3, align 4
  %18 = icmp slt i32 %16, %17
  br i1 %18, label %19, label %30

19:                                               ; preds = %15
  %20 = load i32, i32* %7, align 4
  %21 = sext i32 %20 to i64
  %22 = getelementptr inbounds [8 x [8 x i32]], [8 x [8 x i32]]* %4, i64 0, i64 %21
  %23 = load i32, i32* %8, align 4
  %24 = sext i32 %23 to i64
  %25 = getelementptr inbounds [8 x i32], [8 x i32]* %22, i64 0, i64 %24
  %26 = call i32 (i8*, ...) @__isoc99_scanf(i8* getelementptr inbounds ([3 x i8], [3 x i8]* @.str.1, i64 0, i64 0), i32* %25)
  br label %27

27:                                               ; preds = %19
  %28 = load i32, i32* %8, align 4
  %29 = add nsw i32 %28, 1
  store i32 %29, i32* %8, align 4
  br label %15

30:                                               ; preds = %15
  br label %31

31:                                               ; preds = %30
  %32 = load i32, i32* %7, align 4
  %33 = add nsw i32 %32, 1
  store i32 %33, i32* %7, align 4
  br label %10

34:                                               ; preds = %10
  store i32 0, i32* %7, align 4
  br label %35

35:                                               ; preds = %81, %34
  %36 = load i32, i32* %7, align 4
  %37 = load i32, i32* %2, align 4
  %38 = icmp slt i32 %36, %37
  br i1 %38, label %39, label %84

39:                                               ; preds = %35
  %40 = load i32, i32* %7, align 4
  %41 = sext i32 %40 to i64
  %42 = getelementptr inbounds [8 x [8 x i32]], [8 x [8 x i32]]* %4, i64 0, i64 %41
  %43 = getelementptr inbounds [8 x i32], [8 x i32]* %42, i64 0, i64 0
  %44 = load i32, i32* %43, align 16
  %45 = load i32, i32* %7, align 4
  %46 = sext i32 %45 to i64
  %47 = getelementptr inbounds [8 x i32], [8 x i32]* %5, i64 0, i64 %46
  store i32 %44, i32* %47, align 4
  store i32 1, i32* %8, align 4
  br label %48

48:                                               ; preds = %77, %39
  %49 = load i32, i32* %8, align 4
  %50 = load i32, i32* %3, align 4
  %51 = icmp slt i32 %49, %50
  br i1 %51, label %52, label %80

52:                                               ; preds = %48
  %53 = load i32, i32* %7, align 4
  %54 = sext i32 %53 to i64
  %55 = getelementptr inbounds [8 x [8 x i32]], [8 x [8 x i32]]* %4, i64 0, i64 %54
  %56 = load i32, i32* %8, align 4
  %57 = sext i32 %56 to i64
  %58 = getelementptr inbounds [8 x i32], [8 x i32]* %55, i64 0, i64 %57
  %59 = load i32, i32* %58, align 4
  %60 = load i32, i32* %7, align 4
  %61 = sext i32 %60 to i64
  %62 = getelementptr inbounds [8 x i32], [8 x i32]* %5, i64 0, i64 %61
  %63 = load i32, i32* %62, align 4
  %64 = icmp sgt i32 %59, %63
  br i1 %64, label %65, label %76

65:                                               ; preds = %52
  %66 = load i32, i32* %7, align 4
  %67 = sext i32 %66 to i64
  %68 = getelementptr inbounds [8 x [8 x i32]], [8 x [8 x i32]]* %4, i64 0, i64 %67
  %69 = load i32, i32* %8, align 4
  %70 = sext i32 %69 to i64
  %71 = getelementptr inbounds [8 x i32], [8 x i32]* %68, i64 0, i64 %70
  %72 = load i32, i32* %71, align 4
  %73 = load i32, i32* %7, align 4
  %74 = sext i32 %73 to i64
  %75 = getelementptr inbounds [8 x i32], [8 x i32]* %5, i64 0, i64 %74
  store i32 %72, i32* %75, align 4
  br label %76

76:                                               ; preds = %65, %52
  br label %77

77:                                               ; preds = %76
  %78 = load i32, i32* %8, align 4
  %79 = add nsw i32 %78, 1
  store i32 %79, i32* %8, align 4
  br label %48

80:                                               ; preds = %48
  br label %81

81:                                               ; preds = %80
  %82 = load i32, i32* %7, align 4
  %83 = add nsw i32 %82, 1
  store i32 %83, i32* %7, align 4
  br label %35

84:                                               ; preds = %35
  store i32 0, i32* %8, align 4
  br label %85

85:                                               ; preds = %131, %84
  %86 = load i32, i32* %8, align 4
  %87 = load i32, i32* %3, align 4
  %88 = icmp slt i32 %86, %87
  br i1 %88, label %89, label %134

89:                                               ; preds = %85
  %90 = getelementptr inbounds [8 x [8 x i32]], [8 x [8 x i32]]* %4, i64 0, i64 0
  %91 = load i32, i32* %8, align 4
  %92 = sext i32 %91 to i64
  %93 = getelementptr inbounds [8 x i32], [8 x i32]* %90, i64 0, i64 %92
  %94 = load i32, i32* %93, align 4
  %95 = load i32, i32* %8, align 4
  %96 = sext i32 %95 to i64
  %97 = getelementptr inbounds [8 x i32], [8 x i32]* %6, i64 0, i64 %96
  store i32 %94, i32* %97, align 4
  store i32 1, i32* %7, align 4
  br label %98

98:                                               ; preds = %127, %89
  %99 = load i32, i32* %7, align 4
  %100 = load i32, i32* %2, align 4
  %101 = icmp slt i32 %99, %100
  br i1 %101, label %102, label %130

102:                                              ; preds = %98
  %103 = load i32, i32* %7, align 4
  %104 = sext i32 %103 to i64
  %105 = getelementptr inbounds [8 x [8 x i32]], [8 x [8 x i32]]* %4, i64 0, i64 %104
  %106 = load i32, i32* %8, align 4
  %107 = sext i32 %106 to i64
  %108 = getelementptr inbounds [8 x i32], [8 x i32]* %105, i64 0, i64 %107
  %109 = load i32, i32* %108, align 4
  %110 = load i32, i32* %8, align 4
  %111 = sext i32 %110 to i64
  %112 = getelementptr inbounds [8 x i32], [8 x i32]* %6, i64 0, i64 %111
  %113 = load i32, i32* %112, align 4
  %114 = icmp slt i32 %109, %113
  br i1 %114, label %115, label %126

115:                                              ; preds = %102
  %116 = load i32, i32* %7, align 4
  %117 = sext i32 %116 to i64
  %118 = getelementptr inbounds [8 x [8 x i32]], [8 x [8 x i32]]* %4, i64 0, i64 %117
  %119 = load i32, i32* %8, align 4
  %120 = sext i32 %119 to i64
  %121 = getelementptr inbounds [8 x i32], [8 x i32]* %118, i64 0, i64 %120
  %122 = load i32, i32* %121, align 4
  %123 = load i32, i32* %8, align 4
  %124 = sext i32 %123 to i64
  %125 = getelementptr inbounds [8 x i32], [8 x i32]* %6, i64 0, i64 %124
  store i32 %122, i32* %125, align 4
  br label %126

126:                                              ; preds = %115, %102
  br label %127

127:                                              ; preds = %126
  %128 = load i32, i32* %7, align 4
  %129 = add nsw i32 %128, 1
  store i32 %129, i32* %7, align 4
  br label %98

130:                                              ; preds = %98
  br label %131

131:                                              ; preds = %130
  %132 = load i32, i32* %8, align 4
  %133 = add nsw i32 %132, 1
  store i32 %133, i32* %8, align 4
  br label %85

134:                                              ; preds = %85
  store i32 0, i32* %7, align 4
  br label %135

135:                                              ; preds = %163, %134
  %136 = load i32, i32* %7, align 4
  %137 = load i32, i32* %2, align 4
  %138 = icmp slt i32 %136, %137
  br i1 %138, label %139, label %166

139:                                              ; preds = %135
  store i32 0, i32* %8, align 4
  br label %140

140:                                              ; preds = %159, %139
  %141 = load i32, i32* %8, align 4
  %142 = load i32, i32* %3, align 4
  %143 = icmp slt i32 %141, %142
  br i1 %143, label %144, label %162

144:                                              ; preds = %140
  %145 = load i32, i32* %7, align 4
  %146 = sext i32 %145 to i64
  %147 = getelementptr inbounds [8 x i32], [8 x i32]* %5, i64 0, i64 %146
  %148 = load i32, i32* %147, align 4
  %149 = load i32, i32* %8, align 4
  %150 = sext i32 %149 to i64
  %151 = getelementptr inbounds [8 x i32], [8 x i32]* %6, i64 0, i64 %150
  %152 = load i32, i32* %151, align 4
  %153 = icmp eq i32 %148, %152
  br i1 %153, label %154, label %158

154:                                              ; preds = %144
  %155 = load i32, i32* %7, align 4
  %156 = load i32, i32* %8, align 4
  %157 = call i32 (i8*, ...) @printf(i8* getelementptr inbounds ([6 x i8], [6 x i8]* @.str.2, i64 0, i64 0), i32 %155, i32 %156)
  store i32 0, i32* %1, align 4
  br label %168

158:                                              ; preds = %144
  br label %159

159:                                              ; preds = %158
  %160 = load i32, i32* %8, align 4
  %161 = add nsw i32 %160, 1
  store i32 %161, i32* %8, align 4
  br label %140

162:                                              ; preds = %140
  br label %163

163:                                              ; preds = %162
  %164 = load i32, i32* %7, align 4
  %165 = add nsw i32 %164, 1
  store i32 %165, i32* %7, align 4
  br label %135

166:                                              ; preds = %135
  %167 = call i32 (i8*, ...) @printf(i8* getelementptr inbounds ([3 x i8], [3 x i8]* @.str.3, i64 0, i64 0))
  store i32 0, i32* %1, align 4
  br label %168

168:                                              ; preds = %166, %154
  %169 = load i32, i32* %1, align 4
  ret i32 %169
}