; Function Attrs: nofree nounwind sspstrong uwtable
define dso_local i32 @main() local_unnamed_addr #0 {
  %1 = alloca i32, align 4
  %2 = alloca i32, align 4
  %3 = alloca [8 x [8 x i32]], align 16
  %4 = bitcast [8 x [8 x i32]]* %3 to i8*
  %5 = alloca [8 x i32], align 16
  %6 = alloca [8 x i32], align 16
  %7 = bitcast [8 x i32]* %6 to i8*
  %8 = bitcast i32* %1 to i8*
  call void @llvm.lifetime.start.p0i8(i64 4, i8* nonnull %8) #5
  %9 = bitcast i32* %2 to i8*
  call void @llvm.lifetime.start.p0i8(i64 4, i8* nonnull %9) #5
  call void @llvm.lifetime.start.p0i8(i64 256, i8* nonnull %4) #5
  %10 = bitcast [8 x i32]* %5 to i8*
  call void @llvm.lifetime.start.p0i8(i64 32, i8* nonnull %10) #5
  call void @llvm.lifetime.start.p0i8(i64 32, i8* nonnull %7) #5
  %11 = call i32 (i8*, ...) @__isoc99_scanf(i8* getelementptr inbounds ([6 x i8], [6 x i8]* @.str, i64 0, i64 0), i32* nonnull %1, i32* nonnull %2)
  %12 = load i32, i32* %1, align 4, !tbaa !5
  %13 = icmp sgt i32 %12, 0
  %14 = load i32, i32* %2, align 4
  br i1 %13, label %15, label %156

15:                                               ; preds = %0
  %16 = icmp sgt i32 %14, 0
  br i1 %16, label %17, label %26

17:                                               ; preds = %15, %138
  %18 = phi i32 [ %139, %138 ], [ %12, %15 ]
  %19 = phi i32 [ %140, %138 ], [ %14, %15 ]
  %20 = phi i64 [ %141, %138 ], [ 0, %15 ]
  %21 = icmp sgt i32 %19, 0
  br i1 %21, label %128, label %138

22:                                               ; preds = %138
  %23 = icmp sgt i32 %139, 0
  br i1 %23, label %24, label %156

24:                                               ; preds = %22
  %25 = icmp sgt i32 %140, 1
  br i1 %25, label %35, label %26

26:                                               ; preds = %15, %24
  %27 = phi i32 [ %140, %24 ], [ %14, %15 ]
  %28 = phi i32 [ %139, %24 ], [ %12, %15 ]
  %29 = zext i32 %28 to i64
  %30 = add nsw i64 %29, -1
  %31 = and i64 %29, 3
  %32 = icmp ult i64 %30, 3
  br i1 %32, label %144, label %33

33:                                               ; preds = %26
  %34 = and i64 %29, 4294967292
  br label %222

35:                                               ; preds = %24
  %36 = zext i32 %139 to i64
  %37 = zext i32 %140 to i64
  %38 = add nsw i64 %37, -1
  %39 = add nsw i64 %37, -9
  %40 = lshr i64 %39, 3
  %41 = add nuw nsw i64 %40, 1
  %42 = icmp ult i64 %38, 8
  %43 = and i64 %38, -8
  %44 = or i64 %43, 1
  %45 = and i64 %41, 1
  %46 = icmp ult i64 %39, 8
  %47 = and i64 %41, 4611686018427387902
  %48 = icmp eq i64 %45, 0
  %49 = icmp eq i64 %38, %43
  br label %50

50:                                               ; preds = %35, %124
  %51 = phi i64 [ 0, %35 ], [ %126, %124 ]
  %52 = getelementptr inbounds [8 x [8 x i32]], [8 x [8 x i32]]* %3, i64 0, i64 %51, i64 0
  %53 = load i32, i32* %52, align 16, !tbaa !5
  %54 = getelementptr inbounds [8 x i32], [8 x i32]* %5, i64 0, i64 %51
  br i1 %42, label %112, label %55

55:                                               ; preds = %50
  %56 = insertelement <4 x i32> poison, i32 %53, i32 0
  %57 = shufflevector <4 x i32> %56, <4 x i32> poison, <4 x i32> zeroinitializer
  br i1 %46, label %88, label %58

58:                                               ; preds = %55, %58
  %59 = phi i64 [ %85, %58 ], [ 0, %55 ]
  %60 = phi <4 x i32> [ %83, %58 ], [ %57, %55 ]
  %61 = phi <4 x i32> [ %84, %58 ], [ %57, %55 ]
  %62 = phi i64 [ %86, %58 ], [ %47, %55 ]
  %63 = or i64 %59, 1
  %64 = getelementptr inbounds [8 x [8 x i32]], [8 x [8 x i32]]* %3, i64 0, i64 %51, i64 %63
  %65 = bitcast i32* %64 to <4 x i32>*
  %66 = load <4 x i32>, <4 x i32>* %65, align 4, !tbaa !5
  %67 = getelementptr inbounds i32, i32* %64, i64 4
  %68 = bitcast i32* %67 to <4 x i32>*
  %69 = load <4 x i32>, <4 x i32>* %68, align 4, !tbaa !5
  %70 = icmp sgt <4 x i32> %66, %60
  %71 = icmp sgt <4 x i32> %69, %61
  %72 = select <4 x i1> %70, <4 x i32> %66, <4 x i32> %60
  %73 = select <4 x i1> %71, <4 x i32> %69, <4 x i32> %61
  %74 = or i64 %59, 9
  %75 = getelementptr inbounds [8 x [8 x i32]], [8 x [8 x i32]]* %3, i64 0, i64 %51, i64 %74
  %76 = bitcast i32* %75 to <4 x i32>*
  %77 = load <4 x i32>, <4 x i32>* %76, align 4, !tbaa !5
  %78 = getelementptr inbounds i32, i32* %75, i64 4
  %79 = bitcast i32* %78 to <4 x i32>*
  %80 = load <4 x i32>, <4 x i32>* %79, align 4, !tbaa !5
  %81 = icmp sgt <4 x i32> %77, %72
  %82 = icmp sgt <4 x i32> %80, %73
  %83 = select <4 x i1> %81, <4 x i32> %77, <4 x i32> %72
  %84 = select <4 x i1> %82, <4 x i32> %80, <4 x i32> %73
  %85 = add nuw i64 %59, 16
  %86 = add i64 %62, -2
  %87 = icmp eq i64 %86, 0
  br i1 %87, label %88, label %58, !llvm.loop !9

88:                                               ; preds = %58, %55
  %89 = phi <4 x i32> [ undef, %55 ], [ %83, %58 ]
  %90 = phi <4 x i32> [ undef, %55 ], [ %84, %58 ]
  %91 = phi i64 [ 0, %55 ], [ %85, %58 ]
  %92 = phi <4 x i32> [ %57, %55 ], [ %83, %58 ]
  %93 = phi <4 x i32> [ %57, %55 ], [ %84, %58 ]
  br i1 %48, label %106, label %94

94:                                               ; preds = %88
  %95 = or i64 %91, 1
  %96 = getelementptr inbounds [8 x [8 x i32]], [8 x [8 x i32]]* %3, i64 0, i64 %51, i64 %95
  %97 = bitcast i32* %96 to <4 x i32>*
  %98 = load <4 x i32>, <4 x i32>* %97, align 4, !tbaa !5
  %99 = getelementptr inbounds i32, i32* %96, i64 4
  %100 = bitcast i32* %99 to <4 x i32>*
  %101 = load <4 x i32>, <4 x i32>* %100, align 4, !tbaa !5
  %102 = icmp sgt <4 x i32> %101, %93
  %103 = select <4 x i1> %102, <4 x i32> %101, <4 x i32> %93
  %104 = icmp sgt <4 x i32> %98, %92
  %105 = select <4 x i1> %104, <4 x i32> %98, <4 x i32> %92
  br label %106

106:                                              ; preds = %88, %94
  %107 = phi <4 x i32> [ %89, %88 ], [ %105, %94 ]
  %108 = phi <4 x i32> [ %90, %88 ], [ %103, %94 ]
  %109 = icmp sgt <4 x i32> %107, %108
  %110 = select <4 x i1> %109, <4 x i32> %107, <4 x i32> %108
  %111 = call i32 @llvm.vector.reduce.smax.v4i32(<4 x i32> %110)
  br i1 %49, label %124, label %112

112:                                              ; preds = %50, %106
  %113 = phi i64 [ 1, %50 ], [ %44, %106 ]
  %114 = phi i32 [ %53, %50 ], [ %111, %106 ]
  br label %115

115:                                              ; preds = %112, %115
  %116 = phi i64 [ %122, %115 ], [ %113, %112 ]
  %117 = phi i32 [ %121, %115 ], [ %114, %112 ]
  %118 = getelementptr inbounds [8 x [8 x i32]], [8 x [8 x i32]]* %3, i64 0, i64 %51, i64 %116
  %119 = load i32, i32* %118, align 4, !tbaa !5
  %120 = icmp sgt i32 %119, %117
  %121 = select i1 %120, i32 %119, i32 %117
  %122 = add nuw nsw i64 %116, 1
  %123 = icmp eq i64 %122, %37
  br i1 %123, label %124, label %115, !llvm.loop !12

124:                                              ; preds = %115, %106
  %125 = phi i32 [ %111, %106 ], [ %121, %115 ]
  store i32 %125, i32* %54, align 4, !tbaa !5
  %126 = add nuw nsw i64 %51, 1
  %127 = icmp eq i64 %126, %36
  br i1 %127, label %156, label %50, !llvm.loop !14

128:                                              ; preds = %17, %128
  %129 = phi i64 [ %132, %128 ], [ 0, %17 ]
  %130 = getelementptr inbounds [8 x [8 x i32]], [8 x [8 x i32]]* %3, i64 0, i64 %20, i64 %129
  %131 = call i32 (i8*, ...) @__isoc99_scanf(i8* getelementptr inbounds ([3 x i8], [3 x i8]* @.str.1, i64 0, i64 0), i32* nonnull %130)
  %132 = add nuw nsw i64 %129, 1
  %133 = load i32, i32* %2, align 4, !tbaa !5
  %134 = sext i32 %133 to i64
  %135 = icmp slt i64 %132, %134
  br i1 %135, label %128, label %136, !llvm.loop !15

136:                                              ; preds = %128
  %137 = load i32, i32* %1, align 4, !tbaa !5
  br label %138

138:                                              ; preds = %136, %17
  %139 = phi i32 [ %137, %136 ], [ %18, %17 ]
  %140 = phi i32 [ %133, %136 ], [ %19, %17 ]
  %141 = add nuw nsw i64 %20, 1
  %142 = sext i32 %139 to i64
  %143 = icmp slt i64 %141, %142
  br i1 %143, label %17, label %22, !llvm.loop !16

144:                                              ; preds = %222, %26
  %145 = phi i64 [ 0, %26 ], [ %240, %222 ]
  %146 = icmp eq i64 %31, 0
  br i1 %146, label %156, label %147

147:                                              ; preds = %144, %147
  %148 = phi i64 [ %153, %147 ], [ %145, %144 ]
  %149 = phi i64 [ %154, %147 ], [ %31, %144 ]
  %150 = getelementptr inbounds [8 x [8 x i32]], [8 x [8 x i32]]* %3, i64 0, i64 %148, i64 0
  %151 = load i32, i32* %150, align 16, !tbaa !5
  %152 = getelementptr inbounds [8 x i32], [8 x i32]* %5, i64 0, i64 %148
  store i32 %151, i32* %152, align 4, !tbaa !5
  %153 = add nuw nsw i64 %148, 1
  %154 = add i64 %149, -1
  %155 = icmp eq i64 %154, 0
  br i1 %155, label %156, label %147, !llvm.loop !18

156:                                              ; preds = %144, %147, %124, %0, %22
  %157 = phi i1 [ false, %22 ], [ false, %0 ], [ true, %124 ], [ true, %147 ], [ true, %144 ]
  %158 = phi i32 [ %139, %22 ], [ %12, %0 ], [ %139, %124 ], [ %28, %147 ], [ %28, %144 ]
  %159 = phi i32 [ %140, %22 ], [ %14, %0 ], [ %140, %124 ], [ %27, %147 ], [ %27, %144 ]
  %160 = icmp sgt i32 %159, 0
  br i1 %160, label %161, label %269

161:                                              ; preds = %156
  %162 = icmp sgt i32 %158, 1
  %163 = zext i32 %159 to i64
  br i1 %162, label %164, label %245

164:                                              ; preds = %161
  %165 = zext i32 %158 to i64
  %166 = add nsw i64 %165, -1
  %167 = add nsw i64 %165, -2
  %168 = and i64 %166, 3
  %169 = icmp ult i64 %167, 3
  %170 = and i64 %166, -4
  %171 = icmp eq i64 %168, 0
  br label %172

172:                                              ; preds = %164, %218
  %173 = phi i64 [ 0, %164 ], [ %220, %218 ]
  %174 = getelementptr inbounds [8 x [8 x i32]], [8 x [8 x i32]]* %3, i64 0, i64 0, i64 %173
  %175 = load i32, i32* %174, align 4, !tbaa !5
  %176 = getelementptr inbounds [8 x i32], [8 x i32]* %6, i64 0, i64 %173
  br i1 %169, label %203, label %177

177:                                              ; preds = %172, %177
  %178 = phi i64 [ %200, %177 ], [ 1, %172 ]
  %179 = phi i32 [ %199, %177 ], [ %175, %172 ]
  %180 = phi i64 [ %201, %177 ], [ %170, %172 ]
  %181 = getelementptr inbounds [8 x [8 x i32]], [8 x [8 x i32]]* %3, i64 0, i64 %178, i64 %173
  %182 = load i32, i32* %181, align 4, !tbaa !5
  %183 = icmp slt i32 %182, %179
  %184 = select i1 %183, i32 %182, i32 %179
  %185 = add nuw nsw i64 %178, 1
  %186 = getelementptr inbounds [8 x [8 x i32]], [8 x [8 x i32]]* %3, i64 0, i64 %185, i64 %173
  %187 = load i32, i32* %186, align 4, !tbaa !5
  %188 = icmp slt i32 %187, %184
  %189 = select i1 %188, i32 %187, i32 %184
  %190 = add nuw nsw i64 %178, 2
  %191 = getelementptr inbounds [8 x [8 x i32]], [8 x [8 x i32]]* %3, i64 0, i64 %190, i64 %173
  %192 = load i32, i32* %191, align 4, !tbaa !5
  %193 = icmp slt i32 %192, %189
  %194 = select i1 %193, i32 %192, i32 %189
  %195 = add nuw nsw i64 %178, 3
  %196 = getelementptr inbounds [8 x [8 x i32]], [8 x [8 x i32]]* %3, i64 0, i64 %195, i64 %173
  %197 = load i32, i32* %196, align 4, !tbaa !5
  %198 = icmp slt i32 %197, %194
  %199 = select i1 %198, i32 %197, i32 %194
  %200 = add nuw nsw i64 %178, 4
  %201 = add i64 %180, -4
  %202 = icmp eq i64 %201, 0
  br i1 %202, label %203, label %177, !llvm.loop !20

203:                                              ; preds = %177, %172
  %204 = phi i32 [ undef, %172 ], [ %199, %177 ]
  %205 = phi i64 [ 1, %172 ], [ %200, %177 ]
  %206 = phi i32 [ %175, %172 ], [ %199, %177 ]
  br i1 %171, label %218, label %207

207:                                              ; preds = %203, %207
  %208 = phi i64 [ %215, %207 ], [ %205, %203 ]
  %209 = phi i32 [ %214, %207 ], [ %206, %203 ]
  %210 = phi i64 [ %216, %207 ], [ %168, %203 ]
  %211 = getelementptr inbounds [8 x [8 x i32]], [8 x [8 x i32]]* %3, i64 0, i64 %208, i64 %173
  %212 = load i32, i32* %211, align 4, !tbaa !5
  %213 = icmp slt i32 %212, %209
  %214 = select i1 %213, i32 %212, i32 %209
  %215 = add nuw nsw i64 %208, 1
  %216 = add i64 %210, -1
  %217 = icmp eq i64 %216, 0
  br i1 %217, label %218, label %207, !llvm.loop !21

218:                                              ; preds = %207, %203
  %219 = phi i32 [ %204, %203 ], [ %214, %207 ]
  store i32 %219, i32* %176, align 4, !tbaa !5
  %220 = add nuw nsw i64 %173, 1
  %221 = icmp eq i64 %220, %163
  br i1 %221, label %243, label %172, !llvm.loop !22

222:                                              ; preds = %222, %33
  %223 = phi i64 [ 0, %33 ], [ %240, %222 ]
  %224 = phi i64 [ %34, %33 ], [ %241, %222 ]
  %225 = getelementptr inbounds [8 x [8 x i32]], [8 x [8 x i32]]* %3, i64 0, i64 %223, i64 0
  %226 = load i32, i32* %225, align 16, !tbaa !5
  %227 = getelementptr inbounds [8 x i32], [8 x i32]* %5, i64 0, i64 %223
  store i32 %226, i32* %227, align 16, !tbaa !5
  %228 = or i64 %223, 1
  %229 = getelementptr inbounds [8 x [8 x i32]], [8 x [8 x i32]]* %3, i64 0, i64 %228, i64 0
  %230 = load i32, i32* %229, align 16, !tbaa !5
  %231 = getelementptr inbounds [8 x i32], [8 x i32]* %5, i64 0, i64 %228
  store i32 %230, i32* %231, align 4, !tbaa !5
  %232 = or i64 %223, 2
  %233 = getelementptr inbounds [8 x [8 x i32]], [8 x [8 x i32]]* %3, i64 0, i64 %232, i64 0
  %234 = load i32, i32* %233, align 16, !tbaa !5
  %235 = getelementptr inbounds [8 x i32], [8 x i32]* %5, i64 0, i64 %232
  store i32 %234, i32* %235, align 8, !tbaa !5
  %236 = or i64 %223, 3
  %237 = getelementptr inbounds [8 x [8 x i32]], [8 x [8 x i32]]* %3, i64 0, i64 %236, i64 0
  %238 = load i32, i32* %237, align 16, !tbaa !5
  %239 = getelementptr inbounds [8 x i32], [8 x i32]* %5, i64 0, i64 %236
  store i32 %238, i32* %239, align 4, !tbaa !5
  %240 = add nuw nsw i64 %223, 4
  %241 = add i64 %224, -4
  %242 = icmp eq i64 %241, 0
  br i1 %242, label %144, label %222, !llvm.loop !14

243:                                              ; preds = %218
  %244 = select i1 %157, i1 %160, i1 false
  br i1 %244, label %247, label %269

245:                                              ; preds = %161
  %246 = shl nuw nsw i64 %163, 2
  call void @llvm.memcpy.p0i8.p0i8.i64(i8* nonnull align 16 %7, i8* nonnull align 16 %4, i64 %246, i1 false)
  br i1 %157, label %247, label %269

247:                                              ; preds = %243, %245
  %248 = zext i32 %158 to i64
  %249 = zext i32 %159 to i64
  br label %250

250:                                              ; preds = %247, %262
  %251 = phi i64 [ 0, %247 ], [ %263, %262 ]
  %252 = getelementptr inbounds [8 x i32], [8 x i32]* %5, i64 0, i64 %251
  %253 = load i32, i32* %252, align 4, !tbaa !5
  br label %254

254:                                              ; preds = %250, %259
  %255 = phi i64 [ 0, %250 ], [ %260, %259 ]
  %256 = getelementptr inbounds [8 x i32], [8 x i32]* %6, i64 0, i64 %255
  %257 = load i32, i32* %256, align 4, !tbaa !5
  %258 = icmp eq i32 %253, %257
  br i1 %258, label %265, label %259

259:                                              ; preds = %254
  %260 = add nuw nsw i64 %255, 1
  %261 = icmp eq i64 %260, %249
  br i1 %261, label %262, label %254, !llvm.loop !23

262:                                              ; preds = %259
  %263 = add nuw nsw i64 %251, 1
  %264 = icmp eq i64 %263, %248
  br i1 %264, label %269, label %250, !llvm.loop !24

265:                                              ; preds = %254
  %266 = trunc i64 %251 to i32
  %267 = trunc i64 %255 to i32
  %268 = call i32 (i8*, ...) @printf(i8* nonnull dereferenceable(1) getelementptr inbounds ([6 x i8], [6 x i8]* @.str.2, i64 0, i64 0), i32 %266, i32 %267)
  br label %271

269:                                              ; preds = %262, %243, %156, %245
  %270 = call i32 (i8*, ...) @printf(i8* nonnull dereferenceable(1) getelementptr inbounds ([3 x i8], [3 x i8]* @.str.3, i64 0, i64 0))
  br label %271

271:                                              ; preds = %269, %265
  call void @llvm.lifetime.end.p0i8(i64 32, i8* nonnull %7) #5
  call void @llvm.lifetime.end.p0i8(i64 32, i8* nonnull %10) #5
  call void @llvm.lifetime.end.p0i8(i64 256, i8* nonnull %4) #5
  call void @llvm.lifetime.end.p0i8(i64 4, i8* nonnull %9) #5
  call void @llvm.lifetime.end.p0i8(i64 4, i8* nonnull %8) #5
  ret i32 0
}